; Function Attrs: mustprogress uwtable
define hidden noundef zeroext i1 @_ZN4cvc58internal7options8handlers12handleOptionIbEET_RKNSt7__cxx1112basic_stringIcSt11char_traitsIcESaIcEEESC_(ptr noundef nonnull align 8 dereferenceable(32) %flag, ptr noundef nonnull align 8 dereferenceable(32) %optionarg) local_unnamed_addr #4 personality ptr @__gxx_personality_v0 {
entry:
  %ref.tmp = alloca %"class.std::__cxx11::basic_string", align 8
  %ref.tmp4 = alloca %"class.std::__cxx11::basic_string", align 8
  %ref.tmp5 = alloca %"class.std::__cxx11::basic_string", align 8
  %ref.tmp6 = alloca %"class.std::__cxx11::basic_string", align 8
  %call.i = tail call noundef i32 @_ZNKSt7__cxx1112basic_stringIcSt11char_traitsIcESaIcEE7compareEPKc(ptr noundef nonnull align 8 dereferenceable(32) %optionarg, ptr noundef nonnull @.str.474) #21
  %cmp.i = icmp eq i32 %call.i, 0
  br i1 %cmp.i, label %return, label %if.end

if.end:                                           ; preds = %entry
  %call.i7 = tail call noundef i32 @_ZNKSt7__cxx1112basic_stringIcSt11char_traitsIcESaIcEE7compareEPKc(ptr noundef nonnull align 8 dereferenceable(32) %optionarg, ptr noundef nonnull @.str.475) #21
  %cmp.i8 = icmp eq i32 %call.i7, 0
  br i1 %cmp.i8, label %return, label %if.end3

if.end3:                                          ; preds = %if.end
  %exception = tail call ptr @__cxa_allocate_exception(i64 40) #21
  invoke void @_ZStplIcSt11char_traitsIcESaIcEENSt7__cxx1112basic_stringIT_T0_T1_EEPKS5_RKS8_(ptr nonnull sret(%"class.std::__cxx11::basic_string") align 8 %ref.tmp6, ptr noundef nonnull @.str.476, ptr noundef nonnull align 8 dereferenceable(32) %optionarg)
          to label %invoke.cont unwind label %ehcleanup17.thread

invoke.cont:                                      ; preds = %if.end3
  %call.i910 = invoke noundef nonnull align 8 dereferenceable(32) ptr @_ZNSt7__cxx1112basic_stringIcSt11char_traitsIcESaIcEE6appendEPKc(ptr noundef nonnull align 8 dereferenceable(32) %ref.tmp6, ptr noundef nonnull @.str.477)
          to label %invoke.cont8 unwind label %ehcleanup17.thread20

invoke.cont8:                                     ; preds = %invoke.cont
  call void @_ZNSt7__cxx1112basic_stringIcSt11char_traitsIcESaIcEEC1EOS4_(ptr noundef nonnull align 8 dereferenceable(32) %ref.tmp5, ptr noundef nonnull align 8 dereferenceable(32) %call.i910) #21
  %call.i1112 = invoke noundef nonnull align 8 dereferenceable(32) ptr @_ZNSt7__cxx1112basic_stringIcSt11char_traitsIcESaIcEE6appendERKS4_(ptr noundef nonnull align 8 dereferenceable(32) %ref.tmp5, ptr noundef nonnull align 8 dereferenceable(32) %flag)
          to label %invoke.cont10 unwind label %lpad9

invoke.cont10:                                    ; preds = %invoke.cont8
  call void @_ZNSt7__cxx1112basic_stringIcSt11char_traitsIcESaIcEEC1EOS4_(ptr noundef nonnull align 8 dereferenceable(32) %ref.tmp4, ptr noundef nonnull align 8 dereferenceable(32) %call.i1112) #21
  %call.i1314 = invoke noundef nonnull align 8 dereferenceable(32) ptr @_ZNSt7__cxx1112basic_stringIcSt11char_traitsIcESaIcEE6appendEPKc(ptr noundef nonnull align 8 dereferenceable(32) %ref.tmp4, ptr noundef nonnull @.str.478)
          to label %invoke.cont12 unwind label %lpad11

invoke.cont12:                                    ; preds = %invoke.cont10
  call void @_ZNSt7__cxx1112basic_stringIcSt11char_traitsIcESaIcEEC1EOS4_(ptr noundef nonnull align 8 dereferenceable(32) %ref.tmp, ptr noundef nonnull align 8 dereferenceable(32) %call.i1314) #21
  invoke void @_ZN4cvc58internal15OptionExceptionC2ERKNSt7__cxx1112basic_stringIcSt11char_traitsIcESaIcEEE(ptr noundef nonnull align 8 dereferenceable(40) %exception, ptr noundef nonnull align 8 dereferenceable(32) %ref.tmp)
          to label %invoke.cont14 unwind label %lpad13

invoke.cont14:                                    ; preds = %invoke.cont12
  invoke void @__cxa_throw(ptr nonnull %exception, ptr nonnull @_ZTIN4cvc58internal15OptionExceptionE, ptr nonnull @_ZN4cvc58internal15OptionExceptionD2Ev) #23
          to label %unreachable unwind label %lpad13

ehcleanup17.thread:                               ; preds = %if.end3
  %0 = landingpad { ptr, i32 }
          cleanup
  br label %cleanup.action

ehcleanup17.thread20:                             ; preds = %invoke.cont
  %1 = landingpad { ptr, i32 }
          cleanup
  call void @_ZNSt7__cxx1112basic_stringIcSt11char_traitsIcESaIcEED1Ev(ptr noundef nonnull align 8 dereferenceable(32) %ref.tmp6) #21
  br label %cleanup.action

lpad9:                                            ; preds = %invoke.cont8
  %2 = landingpad { ptr, i32 }
          cleanup
  br label %ehcleanup17

lpad11:                                           ; preds = %invoke.cont10
  %3 = landingpad { ptr, i32 }
          cleanup
  br label %ehcleanup

lpad13:                                           ; preds = %invoke.cont14, %invoke.cont12
  %cleanup.isactive.0 = phi i1 [ false, %invoke.cont14 ], [ true, %invoke.cont12 ]
  %4 = landingpad { ptr, i32 }
          cleanup
  call void @_ZNSt7__cxx1112basic_stringIcSt11char_traitsIcESaIcEED1Ev(ptr noundef nonnull align 8 dereferenceable(32) %ref.tmp) #21
  br label %ehcleanup

ehcleanup:                                        ; preds = %lpad13, %lpad11
  %.pn = phi { ptr, i32 } [ %4, %lpad13 ], [ %3, %lpad11 ]
  %cleanup.isactive.1 = phi i1 [ %cleanup.isactive.0, %lpad13 ], [ true, %lpad11 ]
  call void @_ZNSt7__cxx1112basic_stringIcSt11char_traitsIcESaIcEED1Ev(ptr noundef nonnull align 8 dereferenceable(32) %ref.tmp4) #21
  br label %ehcleanup17

ehcleanup17:                                      ; preds = %lpad9, %ehcleanup
  %.pn.pn = phi { ptr, i32 } [ %.pn, %ehcleanup ], [ %2, %lpad9 ]
  %cleanup.isactive.2 = phi i1 [ %cleanup.isactive.1, %ehcleanup ], [ true, %lpad9 ]
  call void @_ZNSt7__cxx1112basic_stringIcSt11char_traitsIcESaIcEED1Ev(ptr noundef nonnull align 8 dereferenceable(32) %ref.tmp5) #21
  call void @_ZNSt7__cxx1112basic_stringIcSt11char_traitsIcESaIcEED1Ev(ptr noundef nonnull align 8 dereferenceable(32) %ref.tmp6) #21
  br i1 %cleanup.isactive.2, label %cleanup.action, label %eh.resume

cleanup.action:                                   ; preds = %ehcleanup17.thread20, %ehcleanup17.thread, %ehcleanup17
  %.pn.pn.pn.pn19 = phi { ptr, i32 } [ %0, %ehcleanup17.thread ], [ %.pn.pn, %ehcleanup17 ], [ %1, %ehcleanup17.thread20 ]
  call void @__cxa_free_exception(ptr %exception) #21
  br label %eh.resume

return:                                           ; preds = %if.end, %entry
  ret i1 %cmp.i

eh.resume:                                        ; preds = %ehcleanup17, %cleanup.action
  %.pn.pn.pn.pn18 = phi { ptr, i32 } [ %.pn.pn, %ehcleanup17 ], [ %.pn.pn.pn.pn19, %cleanup.action ]
  resume { ptr, i32 } %.pn.pn.pn.pn18

unreachable:                                      ; preds = %invoke.cont14
  unreachable
}